target datalayout = "e-m:e-p270:32:32-p271:32:32-p272:64:64-i64:64-i128:128-f80:128-n8:16:32:64-S128"
target triple = "x86_64-pc-linux-gnu"

%"class.std::__1::ios_base" = type { ptr, i32, i64, i64, i32, i32, ptr, ptr, ptr, ptr, i64, i64, ptr, i64, i64, ptr, i64, i64 }
%"class.std::__1::locale" = type { ptr }

; Function Attrs: inlinehint mustprogress nounwind uwtable
define linkonce_odr hidden void @_ZNSt3__14swapB8ne210000IPPvEENS_9enable_ifIXaasr21is_move_constructibleIT_EE5valuesr18is_move_assignableIS4_EE5valueEvE4typeERS4_S7_(ptr noundef nonnull align 8 dereferenceable(8) %0, ptr noundef nonnull align 8 dereferenceable(8) %1) #14 comdat {
  %3 = alloca ptr, align 8
  %4 = alloca ptr, align 8
  %5 = alloca ptr, align 8
  store ptr %0, ptr %3, align 8, !tbaa !89
  store ptr %1, ptr %4, align 8, !tbaa !89
  call void @llvm.lifetime.start.p0(i64 8, ptr %5) #3
  %6 = load ptr, ptr %3, align 8, !tbaa !89
  %7 = load ptr, ptr %6, align 8, !tbaa !55
  store ptr %7, ptr %5, align 8, !tbaa !55
  %8 = load ptr, ptr %4, align 8, !tbaa !89
  %9 = load ptr, ptr %8, align 8, !tbaa !55
  %10 = load ptr, ptr %3, align 8, !tbaa !89
  store ptr %9, ptr %10, align 8, !tbaa !55
  %11 = load ptr, ptr %5, align 8, !tbaa !55
  %12 = load ptr, ptr %4, align 8, !tbaa !89
  store ptr %11, ptr %12, align 8, !tbaa !55
  call void @llvm.lifetime.end.p0(i64 8, ptr %5) #3
  ret void
}

; Function Attrs: inlinehint mustprogress nounwind uwtable
define linkonce_odr hidden void @_ZNSt3__14swapB8ne210000IPlEENS_9enable_ifIXaasr21is_move_constructibleIT_EE5valuesr18is_move_assignableIS3_EE5valueEvE4typeERS3_S6_(ptr noundef nonnull align 8 dereferenceable(8) %0, ptr noundef nonnull align 8 dereferenceable(8) %1) #14 comdat {
  %3 = alloca ptr, align 8
  %4 = alloca ptr, align 8
  %5 = alloca ptr, align 8
  store ptr %0, ptr %3, align 8, !tbaa !93
  store ptr %1, ptr %4, align 8, !tbaa !93
  call void @llvm.lifetime.start.p0(i64 8, ptr %5) #3
  %6 = load ptr, ptr %3, align 8, !tbaa !93
  %7 = load ptr, ptr %6, align 8, !tbaa !49
  store ptr %7, ptr %5, align 8, !tbaa !49
  %8 = load ptr, ptr %4, align 8, !tbaa !93
  %9 = load ptr, ptr %8, align 8, !tbaa !49
  %10 = load ptr, ptr %3, align 8, !tbaa !93
  store ptr %9, ptr %10, align 8, !tbaa !49
  %11 = load ptr, ptr %5, align 8, !tbaa !49
  %12 = load ptr, ptr %4, align 8, !tbaa !93
  store ptr %11, ptr %12, align 8, !tbaa !49
  call void @llvm.lifetime.end.p0(i64 8, ptr %5) #3
  ret void
}

; Function Attrs: inlinehint mustprogress nounwind uwtable
define linkonce_odr hidden void @_ZNSt3__14swapB8ne210000ImEENS_9enable_ifIXaasr21is_move_constructibleIT_EE5valuesr18is_move_assignableIS2_EE5valueEvE4typeERS2_S5_(ptr noundef nonnull align 8 dereferenceable(8) %0, ptr noundef nonnull align 8 dereferenceable(8) %1) #14 comdat {
  %3 = alloca ptr, align 8
  %4 = alloca ptr, align 8
  %5 = alloca i64, align 8
  store ptr %0, ptr %3, align 8, !tbaa !49
  store ptr %1, ptr %4, align 8, !tbaa !49
  call void @llvm.lifetime.start.p0(i64 8, ptr %5) #3
  %6 = load ptr, ptr %3, align 8, !tbaa !49
  %7 = load i64, ptr %6, align 8, !tbaa !37
  store i64 %7, ptr %5, align 8, !tbaa !37
  %8 = load ptr, ptr %4, align 8, !tbaa !49
  %9 = load i64, ptr %8, align 8, !tbaa !37
  %10 = load ptr, ptr %3, align 8, !tbaa !49
  store i64 %9, ptr %10, align 8, !tbaa !37
  %11 = load i64, ptr %5, align 8, !tbaa !37
  %12 = load ptr, ptr %4, align 8, !tbaa !49
  store i64 %11, ptr %12, align 8, !tbaa !37
  call void @llvm.lifetime.end.p0(i64 8, ptr %5) #3
  ret void
}

; Function Attrs: inlinehint mustprogress nounwind uwtable
define linkonce_odr hidden void @_ZNSt3__14swapB8ne210000IPiEENS_9enable_ifIXaasr21is_move_constructibleIT_EE5valuesr18is_move_assignableIS3_EE5valueEvE4typeERS3_S6_(ptr noundef nonnull align 8 dereferenceable(8) %0, ptr noundef nonnull align 8 dereferenceable(8) %1) #14 comdat {
  %3 = alloca ptr, align 8
  %4 = alloca ptr, align 8
  %5 = alloca ptr, align 8
  store ptr %0, ptr %3, align 8, !tbaa !91
  store ptr %1, ptr %4, align 8, !tbaa !91
  call void @llvm.lifetime.start.p0(i64 8, ptr %5) #3
  %6 = load ptr, ptr %3, align 8, !tbaa !91
  %7 = load ptr, ptr %6, align 8, !tbaa !59
  store ptr %7, ptr %5, align 8, !tbaa !59
  %8 = load ptr, ptr %4, align 8, !tbaa !91
  %9 = load ptr, ptr %8, align 8, !tbaa !59
  %10 = load ptr, ptr %3, align 8, !tbaa !91
  store ptr %9, ptr %10, align 8, !tbaa !59
  %11 = load ptr, ptr %5, align 8, !tbaa !59
  %12 = load ptr, ptr %4, align 8, !tbaa !91
  store ptr %11, ptr %12, align 8, !tbaa !59
  call void @llvm.lifetime.end.p0(i64 8, ptr %5) #3
  ret void
}

; Function Attrs: inlinehint mustprogress nounwind uwtable
define linkonce_odr hidden void @_ZNSt3__14swapB8ne210000IPPFvNS_8ios_base5eventERS1_iEEENS_9enable_ifIXaasr21is_move_constructibleIT_EE5valuesr18is_move_assignableIS8_EE5valueEvE4typeERS8_SB_(ptr noundef nonnull align 8 dereferenceable(8) %0, ptr noundef nonnull align 8 dereferenceable(8) %1) #14 comdat {
  %3 = alloca ptr, align 8
  %4 = alloca ptr, align 8
  %5 = alloca ptr, align 8
  store ptr %0, ptr %3, align 8, !tbaa !89
  store ptr %1, ptr %4, align 8, !tbaa !89
  call void @llvm.lifetime.start.p0(i64 8, ptr %5) #3
  %6 = load ptr, ptr %3, align 8, !tbaa !89
  %7 = load ptr, ptr %6, align 8, !tbaa !55
  store ptr %7, ptr %5, align 8, !tbaa !55
  %8 = load ptr, ptr %4, align 8, !tbaa !89
  %9 = load ptr, ptr %8, align 8, !tbaa !55
  %10 = load ptr, ptr %3, align 8, !tbaa !89
  store ptr %9, ptr %10, align 8, !tbaa !55
  %11 = load ptr, ptr %5, align 8, !tbaa !55
  %12 = load ptr, ptr %4, align 8, !tbaa !89
  store ptr %11, ptr %12, align 8, !tbaa !55
  call void @llvm.lifetime.end.p0(i64 8, ptr %5) #3
  ret void
}

; Function Attrs: inlinehint mustprogress nounwind uwtable
define linkonce_odr hidden void @_ZNSt3__14swapB8ne210000INS_6localeEEENS_9enable_ifIXaasr21is_move_constructibleIT_EE5valuesr18is_move_assignableIS3_EE5valueEvE4typeERS3_S6_(ptr noundef nonnull align 8 dereferenceable(8) %0, ptr noundef nonnull align 8 dereferenceable(8) %1) #14 comdat {
  %3 = alloca ptr, align 8
  %4 = alloca ptr, align 8
  %5 = alloca %"class.std::__1::locale", align 8
  store ptr %0, ptr %3, align 8, !tbaa !43
  store ptr %1, ptr %4, align 8, !tbaa !43
  call void @llvm.lifetime.start.p0(i64 8, ptr %5) #3
  %6 = load ptr, ptr %3, align 8, !tbaa !43
  call void @_ZNSt3__16localeC1ERKS0_(ptr noundef nonnull align 8 dereferenceable(8) %5, ptr noundef nonnull align 8 dereferenceable(8) %6) #3
  %7 = load ptr, ptr %4, align 8, !tbaa !43
  %8 = load ptr, ptr %3, align 8, !tbaa !43
  %9 = call noundef nonnull align 8 dereferenceable(8) ptr @_ZNSt3__16localeaSERKS0_(ptr noundef nonnull align 8 dereferenceable(8) %8, ptr noundef nonnull align 8 dereferenceable(8) %7) #3
  %10 = load ptr, ptr %4, align 8, !tbaa !43
  %11 = call noundef nonnull align 8 dereferenceable(8) ptr @_ZNSt3__16localeaSERKS0_(ptr noundef nonnull align 8 dereferenceable(8) %10, ptr noundef nonnull align 8 dereferenceable(8) %5) #3
  call void @_ZNSt3__16localeD1Ev(ptr noundef nonnull align 8 dereferenceable(8) %5) #3
  call void @llvm.lifetime.end.p0(i64 8, ptr %5) #3
  ret void
}

; Function Attrs: inlinehint mustprogress nounwind uwtable
define linkonce_odr hidden void @_ZNSt3__14swapB8ne210000IlEENS_9enable_ifIXaasr21is_move_constructibleIT_EE5valuesr18is_move_assignableIS2_EE5valueEvE4typeERS2_S5_(ptr noundef nonnull align 8 dereferenceable(8) %0, ptr noundef nonnull align 8 dereferenceable(8) %1) #14 comdat {
  %3 = alloca ptr, align 8
  %4 = alloca ptr, align 8
  %5 = alloca i64, align 8
  store ptr %0, ptr %3, align 8, !tbaa !49
  store ptr %1, ptr %4, align 8, !tbaa !49
  call void @llvm.lifetime.start.p0(i64 8, ptr %5) #3
  %6 = load ptr, ptr %3, align 8, !tbaa !49
  %7 = load i64, ptr %6, align 8, !tbaa !37
  store i64 %7, ptr %5, align 8, !tbaa !37
  %8 = load ptr, ptr %4, align 8, !tbaa !49
  %9 = load i64, ptr %8, align 8, !tbaa !37
  %10 = load ptr, ptr %3, align 8, !tbaa !49
  store i64 %9, ptr %10, align 8, !tbaa !37
  %11 = load i64, ptr %5, align 8, !tbaa !37
  %12 = load ptr, ptr %4, align 8, !tbaa !49
  store i64 %11, ptr %12, align 8, !tbaa !37
  call void @llvm.lifetime.end.p0(i64 8, ptr %5) #3
  ret void
}

; Function Attrs: inlinehint mustprogress nounwind uwtable
define linkonce_odr hidden void @_ZNSt3__14swapB8ne210000IjEENS_9enable_ifIXaasr21is_move_constructibleIT_EE5valuesr18is_move_assignableIS2_EE5valueEvE4typeERS2_S5_(ptr noundef nonnull align 4 dereferenceable(4) %0, ptr noundef nonnull align 4 dereferenceable(4) %1) #14 comdat {
  %3 = alloca ptr, align 8
  %4 = alloca ptr, align 8
  %5 = alloca i32, align 4
  store ptr %0, ptr %3, align 8, !tbaa !59
  store ptr %1, ptr %4, align 8, !tbaa !59
  call void @llvm.lifetime.start.p0(i64 4, ptr %5) #3
  %6 = load ptr, ptr %3, align 8, !tbaa !59
  %7 = load i32, ptr %6, align 4, !tbaa !9
  store i32 %7, ptr %5, align 4, !tbaa !9
  %8 = load ptr, ptr %4, align 8, !tbaa !59
  %9 = load i32, ptr %8, align 4, !tbaa !9
  %10 = load ptr, ptr %3, align 8, !tbaa !59
  store i32 %9, ptr %10, align 4, !tbaa !9
  %11 = load i32, ptr %5, align 4, !tbaa !9
  %12 = load ptr, ptr %4, align 8, !tbaa !59
  store i32 %11, ptr %12, align 4, !tbaa !9
  call void @llvm.lifetime.end.p0(i64 4, ptr %5) #3
  ret void
}

; Function Attrs: mustprogress nounwind uwtable
define dso_local void @_ZNSt3__18ios_base4swapERS0_(ptr noundef nonnull align 8 dereferenceable(136) %0, ptr noundef nonnull align 8 dereferenceable(136) %1) #0 align 2 {
  %3 = alloca ptr, align 8
  %4 = alloca ptr, align 8
  %5 = alloca ptr, align 8
  %6 = alloca ptr, align 8
  store ptr %0, ptr %3, align 8, !tbaa !27
  store ptr %1, ptr %4, align 8, !tbaa !27
  %7 = load ptr, ptr %3, align 8
  %8 = getelementptr inbounds nuw %"class.std::__1::ios_base", ptr %7, i32 0, i32 1
  %9 = load ptr, ptr %4, align 8, !tbaa !27
  %10 = getelementptr inbounds nuw %"class.std::__1::ios_base", ptr %9, i32 0, i32 1
  call void @_ZNSt3__14swapB8ne210000IjEENS_9enable_ifIXaasr21is_move_constructibleIT_EE5valuesr18is_move_assignableIS2_EE5valueEvE4typeERS2_S5_(ptr noundef nonnull align 4 dereferenceable(4) %8, ptr noundef nonnull align 4 dereferenceable(4) %10) #3
  %11 = getelementptr inbounds nuw %"class.std::__1::ios_base", ptr %7, i32 0, i32 2
  %12 = load ptr, ptr %4, align 8, !tbaa !27
  %13 = getelementptr inbounds nuw %"class.std::__1::ios_base", ptr %12, i32 0, i32 2
  call void @_ZNSt3__14swapB8ne210000IlEENS_9enable_ifIXaasr21is_move_constructibleIT_EE5valuesr18is_move_assignableIS2_EE5valueEvE4typeERS2_S5_(ptr noundef nonnull align 8 dereferenceable(8) %11, ptr noundef nonnull align 8 dereferenceable(8) %13) #3
  %14 = getelementptr inbounds nuw %"class.std::__1::ios_base", ptr %7, i32 0, i32 3
  %15 = load ptr, ptr %4, align 8, !tbaa !27
  %16 = getelementptr inbounds nuw %"class.std::__1::ios_base", ptr %15, i32 0, i32 3
  call void @_ZNSt3__14swapB8ne210000IlEENS_9enable_ifIXaasr21is_move_constructibleIT_EE5valuesr18is_move_assignableIS2_EE5valueEvE4typeERS2_S5_(ptr noundef nonnull align 8 dereferenceable(8) %14, ptr noundef nonnull align 8 dereferenceable(8) %16) #3
  %17 = getelementptr inbounds nuw %"class.std::__1::ios_base", ptr %7, i32 0, i32 4
  %18 = load ptr, ptr %4, align 8, !tbaa !27
  %19 = getelementptr inbounds nuw %"class.std::__1::ios_base", ptr %18, i32 0, i32 4
  call void @_ZNSt3__14swapB8ne210000IjEENS_9enable_ifIXaasr21is_move_constructibleIT_EE5valuesr18is_move_assignableIS2_EE5valueEvE4typeERS2_S5_(ptr noundef nonnull align 4 dereferenceable(4) %17, ptr noundef nonnull align 4 dereferenceable(4) %19) #3
  %20 = getelementptr inbounds nuw %"class.std::__1::ios_base", ptr %7, i32 0, i32 5
  %21 = load ptr, ptr %4, align 8, !tbaa !27
  %22 = getelementptr inbounds nuw %"class.std::__1::ios_base", ptr %21, i32 0, i32 5
  call void @_ZNSt3__14swapB8ne210000IjEENS_9enable_ifIXaasr21is_move_constructibleIT_EE5valuesr18is_move_assignableIS2_EE5valueEvE4typeERS2_S5_(ptr noundef nonnull align 4 dereferenceable(4) %20, ptr noundef nonnull align 4 dereferenceable(4) %22) #3
  call void @llvm.lifetime.start.p0(i64 8, ptr %5) #3
  %23 = getelementptr inbounds nuw %"class.std::__1::ios_base", ptr %7, i32 0, i32 7
  store ptr %23, ptr %5, align 8, !tbaa !43
  call void @llvm.lifetime.start.p0(i64 8, ptr %6) #3
  %24 = load ptr, ptr %4, align 8, !tbaa !27
  %25 = getelementptr inbounds nuw %"class.std::__1::ios_base", ptr %24, i32 0, i32 7
  store ptr %25, ptr %6, align 8, !tbaa !43
  %26 = load ptr, ptr %5, align 8, !tbaa !43
  %27 = load ptr, ptr %6, align 8, !tbaa !43
  call void @_ZNSt3__14swapB8ne210000INS_6localeEEENS_9enable_ifIXaasr21is_move_constructibleIT_EE5valuesr18is_move_assignableIS3_EE5valueEvE4typeERS3_S6_(ptr noundef nonnull align 8 dereferenceable(8) %26, ptr noundef nonnull align 8 dereferenceable(8) %27) #3
  %28 = getelementptr inbounds nuw %"class.std::__1::ios_base", ptr %7, i32 0, i32 8
  %29 = load ptr, ptr %4, align 8, !tbaa !27
  %30 = getelementptr inbounds nuw %"class.std::__1::ios_base", ptr %29, i32 0, i32 8
  call void @_ZNSt3__14swapB8ne210000IPPFvNS_8ios_base5eventERS1_iEEENS_9enable_ifIXaasr21is_move_constructibleIT_EE5valuesr18is_move_assignableIS8_EE5valueEvE4typeERS8_SB_(ptr noundef nonnull align 8 dereferenceable(8) %28, ptr noundef nonnull align 8 dereferenceable(8) %30) #3
  %31 = getelementptr inbounds nuw %"class.std::__1::ios_base", ptr %7, i32 0, i32 9
  %32 = load ptr, ptr %4, align 8, !tbaa !27
  %33 = getelementptr inbounds nuw %"class.std::__1::ios_base", ptr %32, i32 0, i32 9
  call void @_ZNSt3__14swapB8ne210000IPiEENS_9enable_ifIXaasr21is_move_constructibleIT_EE5valuesr18is_move_assignableIS3_EE5valueEvE4typeERS3_S6_(ptr noundef nonnull align 8 dereferenceable(8) %31, ptr noundef nonnull align 8 dereferenceable(8) %33) #3
  %34 = getelementptr inbounds nuw %"class.std::__1::ios_base", ptr %7, i32 0, i32 10
  %35 = load ptr, ptr %4, align 8, !tbaa !27
  %36 = getelementptr inbounds nuw %"class.std::__1::ios_base", ptr %35, i32 0, i32 10
  call void @_ZNSt3__14swapB8ne210000ImEENS_9enable_ifIXaasr21is_move_constructibleIT_EE5valuesr18is_move_assignableIS2_EE5valueEvE4typeERS2_S5_(ptr noundef nonnull align 8 dereferenceable(8) %34, ptr noundef nonnull align 8 dereferenceable(8) %36) #3
  %37 = getelementptr inbounds nuw %"class.std::__1::ios_base", ptr %7, i32 0, i32 11
  %38 = load ptr, ptr %4, align 8, !tbaa !27
  %39 = getelementptr inbounds nuw %"class.std::__1::ios_base", ptr %38, i32 0, i32 11
  call void @_ZNSt3__14swapB8ne210000ImEENS_9enable_ifIXaasr21is_move_constructibleIT_EE5valuesr18is_move_assignableIS2_EE5valueEvE4typeERS2_S5_(ptr noundef nonnull align 8 dereferenceable(8) %37, ptr noundef nonnull align 8 dereferenceable(8) %39) #3
  %40 = getelementptr inbounds nuw %"class.std::__1::ios_base", ptr %7, i32 0, i32 12
  %41 = load ptr, ptr %4, align 8, !tbaa !27
  %42 = getelementptr inbounds nuw %"class.std::__1::ios_base", ptr %41, i32 0, i32 12
  call void @_ZNSt3__14swapB8ne210000IPlEENS_9enable_ifIXaasr21is_move_constructibleIT_EE5valuesr18is_move_assignableIS3_EE5valueEvE4typeERS3_S6_(ptr noundef nonnull align 8 dereferenceable(8) %40, ptr noundef nonnull align 8 dereferenceable(8) %42) #3
  %43 = getelementptr inbounds nuw %"class.std::__1::ios_base", ptr %7, i32 0, i32 13
  %44 = load ptr, ptr %4, align 8, !tbaa !27
  %45 = getelementptr inbounds nuw %"class.std::__1::ios_base", ptr %44, i32 0, i32 13
  call void @_ZNSt3__14swapB8ne210000ImEENS_9enable_ifIXaasr21is_move_constructibleIT_EE5valuesr18is_move_assignableIS2_EE5valueEvE4typeERS2_S5_(ptr noundef nonnull align 8 dereferenceable(8) %43, ptr noundef nonnull align 8 dereferenceable(8) %45) #3
  %46 = getelementptr inbounds nuw %"class.std::__1::ios_base", ptr %7, i32 0, i32 14
  %47 = load ptr, ptr %4, align 8, !tbaa !27
  %48 = getelementptr inbounds nuw %"class.std::__1::ios_base", ptr %47, i32 0, i32 14
  call void @_ZNSt3__14swapB8ne210000ImEENS_9enable_ifIXaasr21is_move_constructibleIT_EE5valuesr18is_move_assignableIS2_EE5valueEvE4typeERS2_S5_(ptr noundef nonnull align 8 dereferenceable(8) %46, ptr noundef nonnull align 8 dereferenceable(8) %48) #3
  %49 = getelementptr inbounds nuw %"class.std::__1::ios_base", ptr %7, i32 0, i32 15
  %50 = load ptr, ptr %4, align 8, !tbaa !27
  %51 = getelementptr inbounds nuw %"class.std::__1::ios_base", ptr %50, i32 0, i32 15
  call void @_ZNSt3__14swapB8ne210000IPPvEENS_9enable_ifIXaasr21is_move_constructibleIT_EE5valuesr18is_move_assignableIS4_EE5valueEvE4typeERS4_S7_(ptr noundef nonnull align 8 dereferenceable(8) %49, ptr noundef nonnull align 8 dereferenceable(8) %51) #3
  %52 = getelementptr inbounds nuw %"class.std::__1::ios_base", ptr %7, i32 0, i32 16
  %53 = load ptr, ptr %4, align 8, !tbaa !27
  %54 = getelementptr inbounds nuw %"class.std::__1::ios_base", ptr %53, i32 0, i32 16
  call void @_ZNSt3__14swapB8ne210000ImEENS_9enable_ifIXaasr21is_move_constructibleIT_EE5valuesr18is_move_assignableIS2_EE5valueEvE4typeERS2_S5_(ptr noundef nonnull align 8 dereferenceable(8) %52, ptr noundef nonnull align 8 dereferenceable(8) %54) #3
  %55 = getelementptr inbounds nuw %"class.std::__1::ios_base", ptr %7, i32 0, i32 17
  %56 = load ptr, ptr %4, align 8, !tbaa !27
  %57 = getelementptr inbounds nuw %"class.std::__1::ios_base", ptr %56, i32 0, i32 17
  call void @_ZNSt3__14swapB8ne210000ImEENS_9enable_ifIXaasr21is_move_constructibleIT_EE5valuesr18is_move_assignableIS2_EE5valueEvE4typeERS2_S5_(ptr noundef nonnull align 8 dereferenceable(8) %55, ptr noundef nonnull align 8 dereferenceable(8) %57) #3
  call void @llvm.lifetime.end.p0(i64 8, ptr %6) #3
  call void @llvm.lifetime.end.p0(i64 8, ptr %5) #3
  ret void
}