; Function Attrs: mustprogress nounwind uwtable
define dso_local void @_ZNSt3__18ios_base4swapERS0_(ptr noundef nonnull align 8 dereferenceable(136) %0, ptr noundef nonnull align 8 dereferenceable(136) %1) local_unnamed_addr #6 align 2 {
  %3 = alloca %"class.std::__1::locale", align 8
  %4 = getelementptr inbounds nuw i8, ptr %0, i64 8
  %5 = getelementptr inbounds nuw i8, ptr %1, i64 8
  %6 = load i32, ptr %4, align 8, !tbaa !8
  %7 = load i32, ptr %5, align 8, !tbaa !8
  store i32 %7, ptr %4, align 8, !tbaa !8
  store i32 %6, ptr %5, align 8, !tbaa !8
  %8 = getelementptr inbounds nuw i8, ptr %0, i64 16
  %9 = getelementptr inbounds nuw i8, ptr %1, i64 16
  %10 = load i64, ptr %8, align 8, !tbaa !27
  %11 = load i64, ptr %9, align 8, !tbaa !27
  store i64 %11, ptr %8, align 8, !tbaa !27
  store i64 %10, ptr %9, align 8, !tbaa !27
  %12 = getelementptr inbounds nuw i8, ptr %0, i64 24
  %13 = getelementptr inbounds nuw i8, ptr %1, i64 24
  %14 = load i64, ptr %12, align 8, !tbaa !27
  %15 = load i64, ptr %13, align 8, !tbaa !27
  store i64 %15, ptr %12, align 8, !tbaa !27
  store i64 %14, ptr %13, align 8, !tbaa !27
  %16 = getelementptr inbounds nuw i8, ptr %0, i64 32
  %17 = getelementptr inbounds nuw i8, ptr %1, i64 32
  %18 = load i32, ptr %16, align 8, !tbaa !8
  %19 = load i32, ptr %17, align 8, !tbaa !8
  store i32 %19, ptr %16, align 8, !tbaa !8
  store i32 %18, ptr %17, align 8, !tbaa !8
  %20 = getelementptr inbounds nuw i8, ptr %0, i64 36
  %21 = getelementptr inbounds nuw i8, ptr %1, i64 36
  %22 = load i32, ptr %20, align 4, !tbaa !8
  %23 = load i32, ptr %21, align 4, !tbaa !8
  store i32 %23, ptr %20, align 4, !tbaa !8
  store i32 %22, ptr %21, align 4, !tbaa !8
  %24 = getelementptr inbounds nuw i8, ptr %0, i64 48
  %25 = getelementptr inbounds nuw i8, ptr %1, i64 48
  call void @llvm.lifetime.start.p0(i64 8, ptr nonnull %3) #25
  call void @_ZNSt3__16localeC1ERKS0_(ptr noundef nonnull align 8 dereferenceable(8) %3, ptr noundef nonnull align 8 dereferenceable(8) %24) #25
  %26 = call noundef nonnull align 8 dereferenceable(8) ptr @_ZNSt3__16localeaSERKS0_(ptr noundef nonnull align 8 dereferenceable(8) %24, ptr noundef nonnull align 8 dereferenceable(8) %25) #25
  %27 = call noundef nonnull align 8 dereferenceable(8) ptr @_ZNSt3__16localeaSERKS0_(ptr noundef nonnull align 8 dereferenceable(8) %25, ptr noundef nonnull align 8 dereferenceable(8) %3) #25
  call void @_ZNSt3__16localeD1Ev(ptr noundef nonnull align 8 dereferenceable(8) %3) #25
  call void @llvm.lifetime.end.p0(i64 8, ptr nonnull %3) #25
  %28 = getelementptr inbounds nuw i8, ptr %0, i64 56
  %29 = getelementptr inbounds nuw i8, ptr %1, i64 56
  %30 = load ptr, ptr %28, align 8, !tbaa !44
  %31 = load ptr, ptr %29, align 8, !tbaa !44
  store ptr %31, ptr %28, align 8, !tbaa !44
  store ptr %30, ptr %29, align 8, !tbaa !44
  %32 = getelementptr inbounds nuw i8, ptr %0, i64 64
  %33 = getelementptr inbounds nuw i8, ptr %1, i64 64
  %34 = load ptr, ptr %32, align 8, !tbaa !45
  %35 = load ptr, ptr %33, align 8, !tbaa !45
  store ptr %35, ptr %32, align 8, !tbaa !45
  store ptr %34, ptr %33, align 8, !tbaa !45
  %36 = getelementptr inbounds nuw i8, ptr %0, i64 72
  %37 = getelementptr inbounds nuw i8, ptr %1, i64 72
  %38 = load i64, ptr %36, align 8, !tbaa !27
  %39 = load i64, ptr %37, align 8, !tbaa !27
  store i64 %39, ptr %36, align 8, !tbaa !27
  store i64 %38, ptr %37, align 8, !tbaa !27
  %40 = getelementptr inbounds nuw i8, ptr %0, i64 80
  %41 = getelementptr inbounds nuw i8, ptr %1, i64 80
  %42 = load i64, ptr %40, align 8, !tbaa !27
  %43 = load i64, ptr %41, align 8, !tbaa !27
  store i64 %43, ptr %40, align 8, !tbaa !27
  store i64 %42, ptr %41, align 8, !tbaa !27
  %44 = getelementptr inbounds nuw i8, ptr %0, i64 88
  %45 = getelementptr inbounds nuw i8, ptr %1, i64 88
  %46 = load ptr, ptr %44, align 8, !tbaa !46
  %47 = load ptr, ptr %45, align 8, !tbaa !46
  store ptr %47, ptr %44, align 8, !tbaa !46
  store ptr %46, ptr %45, align 8, !tbaa !46
  %48 = getelementptr inbounds nuw i8, ptr %0, i64 96
  %49 = getelementptr inbounds nuw i8, ptr %1, i64 96
  %50 = load i64, ptr %48, align 8, !tbaa !27
  %51 = load i64, ptr %49, align 8, !tbaa !27
  store i64 %51, ptr %48, align 8, !tbaa !27
  store i64 %50, ptr %49, align 8, !tbaa !27
  %52 = getelementptr inbounds nuw i8, ptr %0, i64 104
  %53 = getelementptr inbounds nuw i8, ptr %1, i64 104
  %54 = load i64, ptr %52, align 8, !tbaa !27
  %55 = load i64, ptr %53, align 8, !tbaa !27
  store i64 %55, ptr %52, align 8, !tbaa !27
  store i64 %54, ptr %53, align 8, !tbaa !27
  %56 = getelementptr inbounds nuw i8, ptr %0, i64 112
  %57 = getelementptr inbounds nuw i8, ptr %1, i64 112
  %58 = load ptr, ptr %56, align 8, !tbaa !44
  %59 = load ptr, ptr %57, align 8, !tbaa !44
  store ptr %59, ptr %56, align 8, !tbaa !44
  store ptr %58, ptr %57, align 8, !tbaa !44
  %60 = getelementptr inbounds nuw i8, ptr %0, i64 120
  %61 = getelementptr inbounds nuw i8, ptr %1, i64 120
  %62 = load i64, ptr %60, align 8, !tbaa !27
  %63 = load i64, ptr %61, align 8, !tbaa !27
  store i64 %63, ptr %60, align 8, !tbaa !27
  store i64 %62, ptr %61, align 8, !tbaa !27
  %64 = getelementptr inbounds nuw i8, ptr %0, i64 128
  %65 = getelementptr inbounds nuw i8, ptr %1, i64 128
  %66 = load i64, ptr %64, align 8, !tbaa !27
  %67 = load i64, ptr %65, align 8, !tbaa !27
  store i64 %67, ptr %64, align 8, !tbaa !27
  store i64 %66, ptr %65, align 8, !tbaa !27
  ret void
}